target datalayout = "e-m:e-p270:32:32-p271:32:32-p272:64:64-i64:64-i128:128-f80:128-n8:16:32:64-S128"
target triple = "x86_64-pc-linux-gnu"

%struct.AddressSpace = type { %struct.rcu_head, ptr, ptr, ptr, i32, i32, ptr, %union.anon, %union.anon.0, i64, i64, %struct.QemuMutex, %struct.anon }
%struct.rcu_head = type { ptr, ptr }
%union.anon = type { %struct.QTailQLink }
%struct.QTailQLink = type { ptr, ptr }
%union.anon.0 = type { %struct.QTailQLink }
%struct.QemuMutex = type { %union.pthread_mutex_t, i8 }
%union.pthread_mutex_t = type { %struct.__pthread_mutex_s }
%struct.__pthread_mutex_s = type { i32, i32, i32, i32, i32, i16, i16, %struct.__pthread_internal_list }
%struct.__pthread_internal_list = type { ptr, ptr }
%struct.anon = type { ptr }
%struct.VirtIOPCIProxy = type { %struct.PCIDevice, %struct.MemoryRegion, %union.anon.7, %struct.MemoryRegion, %struct.MemoryRegion, %struct.AddressSpace, %struct.AddressSpace, i32, i32, i32, i32, i32, i32, i8, i8, i32, i16, i32, i32, i32, i32, [2 x i32], [1024 x %struct.VirtIOPCIQueue], ptr, i32, %struct.VirtioBusState }
%struct.PCIDevice = type { %struct.DeviceState, i8, i8, ptr, ptr, ptr, ptr, ptr, i32, %struct.PCIReqIDCache, [64 x i8], [7 x %struct.PCIIORegion], %struct.AddressSpace, %struct.MemoryRegion, %struct.MemoryRegion, ptr, ptr, [3 x ptr], i8, i8, i32, i8, i32, ptr, ptr, ptr, ptr, ptr, ptr, %struct.MemoryRegion, %struct.MemoryRegion, %struct.MemoryRegion, ptr, i8, i32, i8, %struct.PCIExpressDevice, ptr, ptr, i32, i8, %struct.MemoryRegion, i32, ptr, ptr, ptr, ptr, i16, %struct.DOECap, ptr, i32, i32 }
%struct.DeviceState = type { %struct.Object, ptr, ptr, i8, i8, i64, i32, i8, ptr, %struct.NamedGPIOListHead, %struct.NamedClockListHead, %struct.BusStateHead, i32, i32, i32, %struct.ResettableState, ptr, %struct.MemReentrancyGuard }
%struct.Object = type { ptr, ptr, ptr, i32, ptr }
%struct.NamedGPIOListHead = type { ptr }
%struct.NamedClockListHead = type { ptr }
%struct.BusStateHead = type { ptr }
%struct.ResettableState = type { i32, i8, i8 }
%struct.MemReentrancyGuard = type { i8 }
%struct.PCIReqIDCache = type { ptr, i32 }
%struct.PCIIORegion = type { i64, i64, i8, ptr, ptr }
%struct.PCIExpressDevice = type { i8, i8, i8, i16, %struct.PCIEAERLog, i16, i16, i16, %struct.PCIESriovPF, %struct.PCIESriovVF }
%struct.PCIEAERLog = type { i16, i16, ptr }
%struct.PCIESriovPF = type { i16, [7 x i8], ptr, ptr }
%struct.PCIESriovVF = type { ptr, i16 }
%struct.DOECap = type { ptr, i16, %struct.anon.4, %struct.anon.5, %struct.anon.6, ptr, ptr, i32, i32, i32, ptr, i16, i32 }
%struct.anon.4 = type { i8, i16 }
%struct.anon.5 = type { i8, i8, i8 }
%struct.anon.6 = type { i8, i8, i8, i8 }
%union.anon.7 = type { %struct.anon.8 }
%struct.anon.8 = type { %struct.VirtIOPCIRegion, %struct.VirtIOPCIRegion, %struct.VirtIOPCIRegion, %struct.VirtIOPCIRegion, %struct.VirtIOPCIRegion }
%struct.VirtIOPCIRegion = type { %struct.MemoryRegion, i32, i32, i32 }
%struct.MemoryRegion = type { %struct.Object, i8, i8, i8, i8, i8, i8, i8, i8, i8, i8, ptr, ptr, ptr, ptr, ptr, ptr, i32, i128, i64, ptr, i64, i8, i8, i8, i8, ptr, i64, i32, %union.anon.1, %union.anon.2, %union.anon.3, ptr, i32, ptr, ptr, i8 }
%union.anon.1 = type { %struct.QTailQLink }
%union.anon.2 = type { %struct.QTailQLink }
%union.anon.3 = type { %struct.QTailQLink }
%struct.VirtIOPCIQueue = type { i16, i8, i8, [2 x i32], [2 x i32], [2 x i32] }
%struct.VirtioBusState = type { %struct.BusState, i8, i32 }
%struct.BusState = type { %struct.Object, ptr, ptr, ptr, i32, i8, i8, i32, %union.BusChildHead, %struct.BusStateEntry, %struct.ResettableState }
%union.BusChildHead = type { %struct.QTailQLink }
%struct.BusStateEntry = type { ptr, ptr }
%struct.ObjectClass = type { ptr, ptr, [4 x ptr], [4 x ptr], ptr, ptr }
%struct.VirtIODevice = type { %struct.DeviceState, ptr, i8, i8, i16, i64, i64, i64, i64, ptr, i16, i32, i32, ptr, %struct.MemoryListener, i16, i8, i8, i8, i8, i8, i8, i8, i8, i8, ptr, ptr, i8, i8, ptr, ptr, %union.anon.12, %struct.EventNotifier, i8 }
%struct.MemoryListener = type { ptr, ptr, ptr, ptr, ptr, ptr, ptr, ptr, ptr, ptr, ptr, ptr, ptr, ptr, ptr, ptr, ptr, i32, ptr, ptr, %union.anon.10, %union.anon.11 }
%union.anon.10 = type { %struct.QTailQLink }
%union.anon.11 = type { %struct.QTailQLink }
%union.anon.12 = type { %struct.QTailQLink }
%struct.EventNotifier = type { i32, i32, i8 }
%struct.VirtioDeviceClass = type { %struct.DeviceClass, ptr, ptr, ptr, ptr, ptr, ptr, ptr, ptr, ptr, ptr, ptr, ptr, i64, ptr, ptr, ptr, ptr, ptr, ptr, ptr, ptr, ptr, ptr, ptr, ptr }
%struct.DeviceClass = type { %struct.ObjectClass, [1 x i64], ptr, ptr, ptr, i16, i8, i8, ptr, ptr, ptr, ptr, ptr, ptr }
%struct.BusChild = type { %struct.rcu_head, ptr, i32, %union.anon.13 }
%union.anon.13 = type { %struct.QTailQLink }
%struct.MSIMessage = type { i64, i32 }
%struct.VirtIOIRQFD = type { %struct.MSIMessage, i32, i32 }

@.str.42 = private unnamed_addr constant [14 x i8] c"virtio-device\00", align 1
@.str.43 = private unnamed_addr constant [105 x i8] c"/home/dtcxzyw/WorkSpace/Projects/compilers/llvm-opt-benchmark/bench/qemu/qemu/include/hw/virtio/virtio.h\00", align 1
@__func__.VIRTIO_DEVICE_GET_CLASS = private unnamed_addr constant [24 x i8] c"VIRTIO_DEVICE_GET_CLASS\00", align 1
@kvm_state = external global ptr, align 8

; Function Attrs: nounwind sspstrong uwtable
define internal i32 @kvm_virtio_pci_irqfd_use(ptr noundef %0, ptr noundef %1, i32 noundef %2) #0 {
  %4 = alloca ptr, align 8
  %5 = alloca ptr, align 8
  %6 = alloca i32, align 4
  %7 = alloca ptr, align 8
  store ptr %0, ptr %4, align 8
  store ptr %1, ptr %5, align 8
  store i32 %2, ptr %6, align 4
  call void @llvm.lifetime.start.p0(i64 8, ptr %7) #13
  %8 = load ptr, ptr %4, align 8
  %9 = getelementptr inbounds nuw %struct.VirtIOPCIProxy, ptr %8, i32 0, i32 23
  %10 = load ptr, ptr %9, align 16
  %11 = load i32, ptr %6, align 4
  %12 = zext i32 %11 to i64
  %13 = getelementptr inbounds nuw %struct.VirtIOIRQFD, ptr %10, i64 %12
  store ptr %13, ptr %7, align 8
  %14 = load ptr, ptr @kvm_state, align 8
  %15 = load ptr, ptr %5, align 8
  %16 = load ptr, ptr %7, align 8
  %17 = getelementptr inbounds nuw %struct.VirtIOIRQFD, ptr %16, i32 0, i32 1
  %18 = load i32, ptr %17, align 8
  %19 = call i32 @kvm_irqchip_add_irqfd_notifier_gsi(ptr noundef %14, ptr noundef %15, ptr noundef null, i32 noundef %18)
  call void @llvm.lifetime.end.p0(i64 8, ptr %7) #13
  ret i32 %19
}

; Function Attrs: inlinehint nounwind sspstrong uwtable
define internal ptr @VIRTIO_DEVICE_GET_CLASS(ptr noundef %0) #4 {
  %2 = alloca ptr, align 8
  store ptr %0, ptr %2, align 8
  %3 = load ptr, ptr %2, align 8
  %4 = call ptr @object_get_class(ptr noundef %3)
  %5 = call ptr @object_class_dynamic_cast_assert(ptr noundef %4, ptr noundef @.str.42, ptr noundef @.str.43, i32 noundef 88, ptr noundef @__func__.VIRTIO_DEVICE_GET_CLASS)
  ret ptr %5
}

; Function Attrs: inlinehint nounwind sspstrong uwtable
define internal ptr @virtio_bus_get_device(ptr noundef %0) #4 {
  %2 = alloca ptr, align 8
  %3 = alloca ptr, align 8
  %4 = alloca ptr, align 8
  %5 = alloca ptr, align 8
  store ptr %0, ptr %2, align 8
  call void @llvm.lifetime.start.p0(i64 8, ptr %3) #13
  %6 = load ptr, ptr %2, align 8
  %7 = getelementptr inbounds nuw %struct.VirtioBusState, ptr %6, i32 0, i32 0
  store ptr %7, ptr %3, align 8
  call void @llvm.lifetime.start.p0(i64 8, ptr %4) #13
  %8 = load ptr, ptr %3, align 8
  %9 = getelementptr inbounds nuw %struct.BusState, ptr %8, i32 0, i32 8
  %10 = load ptr, ptr %9, align 8
  store ptr %10, ptr %4, align 8
  call void @llvm.lifetime.start.p0(i64 8, ptr %5) #13
  %11 = load ptr, ptr %4, align 8
  %12 = icmp ne ptr %11, null
  br i1 %12, label %13, label %17

13:                                               ; preds = %1
  %14 = load ptr, ptr %4, align 8
  %15 = getelementptr inbounds nuw %struct.BusChild, ptr %14, i32 0, i32 1
  %16 = load ptr, ptr %15, align 8
  br label %18

17:                                               ; preds = %1
  br label %18

18:                                               ; preds = %17, %13
  %19 = phi ptr [ %16, %13 ], [ null, %17 ]
  store ptr %19, ptr %5, align 8
  %20 = load ptr, ptr %5, align 8
  call void @llvm.lifetime.end.p0(i64 8, ptr %5) #13
  call void @llvm.lifetime.end.p0(i64 8, ptr %4) #13
  call void @llvm.lifetime.end.p0(i64 8, ptr %3) #13
  ret ptr %20
}

; Function Attrs: nounwind sspstrong uwtable
define internal i32 @virtio_pci_one_vector_unmask(ptr noundef %0, i32 noundef %1, i32 noundef %2, i64 %3, i32 %4, ptr noundef %5) #0 {
  %7 = alloca i32, align 4
  %8 = alloca %struct.MSIMessage, align 8
  %9 = alloca ptr, align 8
  %10 = alloca i32, align 4
  %11 = alloca i32, align 4
  %12 = alloca ptr, align 8
  %13 = alloca ptr, align 8
  %14 = alloca ptr, align 8
  %15 = alloca ptr, align 8
  %16 = alloca i32, align 4
  %17 = alloca i32, align 4
  %18 = getelementptr inbounds nuw { i64, i32 }, ptr %8, i32 0, i32 0
  store i64 %3, ptr %18, align 8
  %19 = getelementptr inbounds nuw { i64, i32 }, ptr %8, i32 0, i32 1
  store i32 %4, ptr %19, align 8
  store ptr %0, ptr %9, align 8
  store i32 %1, ptr %10, align 4
  store i32 %2, ptr %11, align 4
  store ptr %5, ptr %12, align 8
  call void @llvm.lifetime.start.p0(i64 8, ptr %13) #13
  %20 = load ptr, ptr %9, align 8
  %21 = getelementptr inbounds nuw %struct.VirtIOPCIProxy, ptr %20, i32 0, i32 25
  %22 = call ptr @virtio_bus_get_device(ptr noundef %21)
  store ptr %22, ptr %13, align 8
  call void @llvm.lifetime.start.p0(i64 8, ptr %14) #13
  %23 = load ptr, ptr %13, align 8
  %24 = call ptr @VIRTIO_DEVICE_GET_CLASS(ptr noundef %23)
  store ptr %24, ptr %14, align 8
  call void @llvm.lifetime.start.p0(i64 8, ptr %15) #13
  store ptr null, ptr %15, align 8, !annotation !4
  call void @llvm.lifetime.start.p0(i64 4, ptr %16) #13
  store i32 0, ptr %16, align 4
  %25 = load ptr, ptr %9, align 8
  %26 = getelementptr inbounds nuw %struct.VirtIOPCIProxy, ptr %25, i32 0, i32 23
  %27 = load ptr, ptr %26, align 16
  %28 = icmp ne ptr %27, null
  br i1 %28, label %29, label %70

29:                                               ; preds = %6
  %30 = load ptr, ptr %9, align 8
  %31 = getelementptr inbounds nuw %struct.VirtIOPCIProxy, ptr %30, i32 0, i32 23
  %32 = load ptr, ptr %31, align 16
  %33 = load i32, ptr %11, align 4
  %34 = zext i32 %33 to i64
  %35 = getelementptr inbounds nuw %struct.VirtIOIRQFD, ptr %32, i64 %34
  store ptr %35, ptr %15, align 8
  %36 = load ptr, ptr %15, align 8
  %37 = getelementptr inbounds nuw %struct.VirtIOIRQFD, ptr %36, i32 0, i32 0
  %38 = getelementptr inbounds nuw %struct.MSIMessage, ptr %37, i32 0, i32 1
  %39 = load i32, ptr %38, align 8
  %40 = getelementptr inbounds nuw %struct.MSIMessage, ptr %8, i32 0, i32 1
  %41 = load i32, ptr %40, align 8
  %42 = icmp ne i32 %39, %41
  br i1 %42, label %51, label %43

43:                                               ; preds = %29
  %44 = load ptr, ptr %15, align 8
  %45 = getelementptr inbounds nuw %struct.VirtIOIRQFD, ptr %44, i32 0, i32 0
  %46 = getelementptr inbounds nuw %struct.MSIMessage, ptr %45, i32 0, i32 0
  %47 = load i64, ptr %46, align 8
  %48 = getelementptr inbounds nuw %struct.MSIMessage, ptr %8, i32 0, i32 0
  %49 = load i64, ptr %48, align 8
  %50 = icmp ne i64 %47, %49
  br i1 %50, label %51, label %69

51:                                               ; preds = %43, %29
  %52 = load ptr, ptr @kvm_state, align 8
  %53 = load ptr, ptr %15, align 8
  %54 = getelementptr inbounds nuw %struct.VirtIOIRQFD, ptr %53, i32 0, i32 1
  %55 = load i32, ptr %54, align 8
  %56 = load ptr, ptr %9, align 8
  %57 = getelementptr inbounds nuw %struct.VirtIOPCIProxy, ptr %56, i32 0, i32 0
  %58 = getelementptr inbounds nuw { i64, i32 }, ptr %8, i32 0, i32 0
  %59 = load i64, ptr %58, align 8
  %60 = getelementptr inbounds nuw { i64, i32 }, ptr %8, i32 0, i32 1
  %61 = load i32, ptr %60, align 8
  %62 = call i32 @kvm_irqchip_update_msi_route(ptr noundef %52, i32 noundef %55, i64 %59, i32 %61, ptr noundef %57)
  store i32 %62, ptr %16, align 4
  %63 = load i32, ptr %16, align 4
  %64 = icmp slt i32 %63, 0
  br i1 %64, label %65, label %67

65:                                               ; preds = %51
  %66 = load i32, ptr %16, align 4
  store i32 %66, ptr %7, align 4
  store i32 1, ptr %17, align 4
  br label %108

67:                                               ; preds = %51
  %68 = load ptr, ptr @kvm_state, align 8
  call void @kvm_irqchip_commit_routes(ptr noundef %68)
  br label %69

69:                                               ; preds = %67, %43
  br label %70

70:                                               ; preds = %69, %6
  %71 = load ptr, ptr %13, align 8
  %72 = getelementptr inbounds nuw %struct.VirtIODevice, ptr %71, i32 0, i32 28
  %73 = load i8, ptr %72, align 1, !range !7, !noundef !8
  %74 = trunc i8 %73 to i1
  br i1 %74, label %75, label %101

75:                                               ; preds = %70
  %76 = load ptr, ptr %14, align 8
  %77 = getelementptr inbounds nuw %struct.VirtioDeviceClass, ptr %76, i32 0, i32 15
  %78 = load ptr, ptr %77, align 8
  %79 = icmp ne ptr %78, null
  br i1 %79, label %80, label %101

80:                                               ; preds = %75
  %81 = load ptr, ptr %14, align 8
  %82 = getelementptr inbounds nuw %struct.VirtioDeviceClass, ptr %81, i32 0, i32 15
  %83 = load ptr, ptr %82, align 8
  %84 = load ptr, ptr %13, align 8
  %85 = load i32, ptr %10, align 4
  call void %83(ptr noundef %84, i32 noundef %85, i1 noundef zeroext false)
  %86 = load ptr, ptr %14, align 8
  %87 = getelementptr inbounds nuw %struct.VirtioDeviceClass, ptr %86, i32 0, i32 14
  %88 = load ptr, ptr %87, align 8
  %89 = icmp ne ptr %88, null
  br i1 %89, label %90, label %100

90:                                               ; preds = %80
  %91 = load ptr, ptr %14, align 8
  %92 = getelementptr inbounds nuw %struct.VirtioDeviceClass, ptr %91, i32 0, i32 14
  %93 = load ptr, ptr %92, align 8
  %94 = load ptr, ptr %13, align 8
  %95 = load i32, ptr %10, align 4
  %96 = call zeroext i1 %93(ptr noundef %94, i32 noundef %95)
  br i1 %96, label %97, label %100

97:                                               ; preds = %90
  %98 = load ptr, ptr %12, align 8
  %99 = call i32 @event_notifier_set(ptr noundef %98)
  br label %100

100:                                              ; preds = %97, %90, %80
  br label %106

101:                                              ; preds = %75, %70
  %102 = load ptr, ptr %9, align 8
  %103 = load ptr, ptr %12, align 8
  %104 = load i32, ptr %11, align 4
  %105 = call i32 @kvm_virtio_pci_irqfd_use(ptr noundef %102, ptr noundef %103, i32 noundef %104)
  store i32 %105, ptr %16, align 4
  br label %106

106:                                              ; preds = %101, %100
  %107 = load i32, ptr %16, align 4
  store i32 %107, ptr %7, align 4
  store i32 1, ptr %17, align 4
  br label %108

108:                                              ; preds = %106, %65
  call void @llvm.lifetime.end.p0(i64 4, ptr %16) #13
  call void @llvm.lifetime.end.p0(i64 8, ptr %15) #13
  call void @llvm.lifetime.end.p0(i64 8, ptr %14) #13
  call void @llvm.lifetime.end.p0(i64 8, ptr %13) #13
  %109 = load i32, ptr %7, align 4
  ret i32 %109
}