; Function Attrs: nounwind sspstrong uwtable
define internal fastcc i32 @virtio_pci_one_vector_unmask(ptr noundef %0, i32 noundef range(i32 -1, 65536) %1, i32 noundef %2, i64 %3, i32 %4, ptr noundef %5) unnamed_addr #0 {
  %7 = getelementptr i8, ptr %0, i64 34160
  %.val = load ptr, ptr %7, align 8
  %.not.i = icmp eq ptr %.val, null
  br i1 %.not.i, label %virtio_bus_get_device.exit, label %8

8:                                                ; preds = %6
  %9 = getelementptr inbounds nuw i8, ptr %.val, i64 16
  %10 = load ptr, ptr %9, align 8
  br label %virtio_bus_get_device.exit

virtio_bus_get_device.exit:                       ; preds = %6, %8
  %11 = phi ptr [ %10, %8 ], [ null, %6 ]
  %12 = tail call ptr @object_get_class(ptr noundef %11) #15
  %13 = tail call ptr @object_class_dynamic_cast_assert(ptr noundef %12, ptr noundef nonnull @.str.42, ptr noundef nonnull @.str.43, i32 noundef 88, ptr noundef nonnull @__func__.VIRTIO_DEVICE_GET_CLASS) #15
  %14 = getelementptr inbounds nuw i8, ptr %0, i64 34064
  %15 = load ptr, ptr %14, align 16
  %.not = icmp eq ptr %15, null
  br i1 %.not, label %31, label %16

16:                                               ; preds = %virtio_bus_get_device.exit
  %17 = zext i32 %2 to i64
  %18 = getelementptr inbounds nuw %struct.VirtIOIRQFD, ptr %15, i64 %17
  %19 = getelementptr inbounds nuw i8, ptr %18, i64 8
  %20 = load i32, ptr %19, align 8
  %.not33 = icmp eq i32 %20, %4
  br i1 %.not33, label %21, label %23

21:                                               ; preds = %16
  %22 = load i64, ptr %18, align 8
  %.not34 = icmp eq i64 %22, %3
  br i1 %.not34, label %31, label %23

23:                                               ; preds = %21, %16
  %24 = load ptr, ptr @kvm_state, align 8
  %25 = getelementptr inbounds nuw i8, ptr %18, i64 16
  %26 = load i32, ptr %25, align 8
  %27 = tail call i32 @kvm_irqchip_update_msi_route(ptr noundef %24, i32 noundef %26, i64 %3, i32 %4, ptr noundef nonnull %0) #15
  %28 = icmp slt i32 %27, 0
  br i1 %28, label %51, label %29

29:                                               ; preds = %23
  %30 = load ptr, ptr @kvm_state, align 8
  tail call void @kvm_irqchip_commit_routes(ptr noundef %30) #15
  br label %31

31:                                               ; preds = %21, %29, %virtio_bus_get_device.exit
  %.0 = phi i32 [ %27, %29 ], [ 0, %21 ], [ 0, %virtio_bus_get_device.exit ]
  %32 = getelementptr inbounds nuw i8, ptr %11, i64 457
  %33 = load i8, ptr %32, align 1, !range !7, !noundef !6
  %34 = trunc nuw i8 %33 to i1
  br i1 %34, label %35, label %45

35:                                               ; preds = %31
  %36 = getelementptr inbounds nuw i8, ptr %13, i64 296
  %37 = load ptr, ptr %36, align 8
  %.not35 = icmp eq ptr %37, null
  br i1 %.not35, label %45, label %38

38:                                               ; preds = %35
  tail call void %37(ptr noundef nonnull %11, i32 noundef %1, i1 noundef zeroext false) #15
  %39 = getelementptr inbounds nuw i8, ptr %13, i64 288
  %40 = load ptr, ptr %39, align 8
  %.not36 = icmp eq ptr %40, null
  br i1 %.not36, label %51, label %41

41:                                               ; preds = %38
  %42 = tail call zeroext i1 %40(ptr noundef nonnull %11, i32 noundef %1) #15
  br i1 %42, label %43, label %51

43:                                               ; preds = %41
  %44 = tail call i32 @event_notifier_set(ptr noundef %5) #15
  br label %51

45:                                               ; preds = %35, %31
  %.val37 = load ptr, ptr %14, align 16
  %46 = zext i32 %2 to i64
  %47 = load ptr, ptr @kvm_state, align 8
  %48 = getelementptr inbounds nuw %struct.VirtIOIRQFD, ptr %.val37, i64 %46, i32 1
  %49 = load i32, ptr %48, align 8
  %50 = tail call i32 @kvm_irqchip_add_irqfd_notifier_gsi(ptr noundef %47, ptr noundef %5, ptr noundef null, i32 noundef %49) #15
  br label %51

51:                                               ; preds = %45, %43, %41, %38, %23
  %.027 = phi i32 [ %27, %23 ], [ %.0, %43 ], [ %.0, %41 ], [ %.0, %38 ], [ %50, %45 ]
  ret i32 %.027
}